; Function Attrs: nounwind uwtable
define dso_local i32 @for_each_loose_file_in_objdir(ptr noundef %0, ptr noundef %1, ptr noundef %2, ptr noundef %3, ptr noundef %4) local_unnamed_addr #1 {
  %6 = alloca %struct.strbuf, align 8
  call void @llvm.lifetime.start.p0(i64 24, ptr nonnull %6) #27
  call void @llvm.memcpy.p0.p0.i64(ptr noundef nonnull align 8 dereferenceable(24) %6, ptr noundef nonnull align 8 dereferenceable(24) @__const.index_mem.nbuf, i64 24, i1 false)
  %7 = tail call i64 @strlen(ptr noundef nonnull dereferenceable(1) %0) #28
  call void @strbuf_add(ptr noundef nonnull %6, ptr noundef nonnull %0, i64 noundef %7) #27
  br label %8

8:                                                ; preds = %8, %5
  %.012.i = phi i32 [ 0, %5 ], [ %10, %8 ]
  %9 = call i32 @for_each_file_in_obj_subdir(i32 noundef %.012.i, ptr noundef nonnull %6, ptr noundef %1, ptr noundef %2, ptr noundef %3, ptr noundef %4)
  %.not.i = icmp ne i32 %9, 0
  %10 = add nuw nsw i32 %.012.i, 1
  %exitcond.not.i = icmp eq i32 %10, 256
  %or.cond.i = select i1 %.not.i, i1 true, i1 %exitcond.not.i
  br i1 %or.cond.i, label %for_each_loose_file_in_objdir_buf.exit, label %8, !llvm.loop !166

for_each_loose_file_in_objdir_buf.exit:           ; preds = %8
  call void @strbuf_release(ptr noundef nonnull %6) #27
  call void @llvm.lifetime.end.p0(i64 24, ptr nonnull %6) #27
  ret i32 %9
}